target datalayout = "e-m:e-p270:32:32-p271:32:32-p272:64:64-i64:64-i128:128-f80:128-n8:16:32:64-S128"
target triple = "x86_64-pc-linux-gnu"

%struct.pmix_hash_type_methods_t = type { ptr, ptr }
%struct.pmix_hash_table_t = type { %struct.pmix_object_t, ptr, ptr, i64, i64, i64, i32, i32, i32, i32, ptr }
%struct.pmix_object_t = type { %union.pthread_mutex_t, ptr, i32, %struct.pmix_tma }
%union.pthread_mutex_t = type { %struct.__pthread_mutex_s }
%struct.__pthread_mutex_s = type { i32, i32, i32, i32, i32, i16, i16, %struct.__pthread_internal_list }
%struct.__pthread_internal_list = type { ptr, ptr }
%struct.pmix_tma = type { ptr, ptr, ptr, ptr, ptr, ptr, ptr, ptr }
%struct.pmix_hash_element_t = type { i32, %union.anon, ptr, ptr }
%union.anon = type { %struct.anon }
%struct.anon = type { ptr, i64 }

@pmix_hash_type_methods_ptr = internal constant %struct.pmix_hash_type_methods_t { ptr @pmix_hash_destruct_elt_ptr, ptr @pmix_hash_hash_elt_ptr }, align 8

; Function Attrs: nounwind uwtable
define internal i32 @pmix_hash_table_remove_elt_at(ptr noundef %0, i64 noundef %1) #0 {
  %3 = alloca i32, align 4
  %4 = alloca ptr, align 8
  %5 = alloca i64, align 8
  %6 = alloca i64, align 8
  %7 = alloca i64, align 8
  %8 = alloca ptr, align 8
  %9 = alloca ptr, align 8
  %10 = alloca i32, align 4
  store ptr %0, ptr %4, align 8, !tbaa !3
  store i64 %1, ptr %5, align 8, !tbaa !28
  call void @llvm.lifetime.start.p0(i64 8, ptr %6) #9
  call void @llvm.lifetime.start.p0(i64 8, ptr %7) #9
  %11 = load ptr, ptr %4, align 8, !tbaa !3
  %12 = getelementptr inbounds nuw %struct.pmix_hash_table_t, ptr %11, i32 0, i32 3
  %13 = load i64, ptr %12, align 8, !tbaa !20
  store i64 %13, ptr %7, align 8, !tbaa !28
  call void @llvm.lifetime.start.p0(i64 8, ptr %8) #9
  %14 = load ptr, ptr %4, align 8, !tbaa !3
  %15 = getelementptr inbounds nuw %struct.pmix_hash_table_t, ptr %14, i32 0, i32 2
  %16 = load ptr, ptr %15, align 8, !tbaa !8
  store ptr %16, ptr %8, align 8, !tbaa !34
  call void @llvm.lifetime.start.p0(i64 8, ptr %9) #9
  %17 = load ptr, ptr %8, align 8, !tbaa !34
  %18 = load i64, ptr %5, align 8, !tbaa !28
  %19 = getelementptr inbounds nuw %struct.pmix_hash_element_t, ptr %17, i64 %18
  store ptr %19, ptr %9, align 8, !tbaa !34
  %20 = load ptr, ptr %9, align 8, !tbaa !34
  %21 = getelementptr inbounds nuw %struct.pmix_hash_element_t, ptr %20, i32 0, i32 0
  %22 = load i32, ptr %21, align 8, !tbaa !35
  %23 = icmp ne i32 %22, 0
  br i1 %23, label %25, label %24

24:                                               ; preds = %2
  store i32 -1, ptr %3, align 4
  store i32 1, ptr %10, align 4
  br label %111

25:                                               ; preds = %2
  %26 = load ptr, ptr %9, align 8, !tbaa !34
  %27 = getelementptr inbounds nuw %struct.pmix_hash_element_t, ptr %26, i32 0, i32 0
  store i32 0, ptr %27, align 8, !tbaa !35
  %28 = load ptr, ptr %4, align 8, !tbaa !3
  %29 = getelementptr inbounds nuw %struct.pmix_hash_table_t, ptr %28, i32 0, i32 10
  %30 = load ptr, ptr %29, align 8, !tbaa !25
  %31 = getelementptr inbounds nuw %struct.pmix_hash_type_methods_t, ptr %30, i32 0, i32 0
  %32 = load ptr, ptr %31, align 8, !tbaa !37
  %33 = icmp ne ptr %32, null
  br i1 %33, label %34, label %41

34:                                               ; preds = %25
  %35 = load ptr, ptr %4, align 8, !tbaa !3
  %36 = getelementptr inbounds nuw %struct.pmix_hash_table_t, ptr %35, i32 0, i32 10
  %37 = load ptr, ptr %36, align 8, !tbaa !25
  %38 = getelementptr inbounds nuw %struct.pmix_hash_type_methods_t, ptr %37, i32 0, i32 0
  %39 = load ptr, ptr %38, align 8, !tbaa !37
  %40 = load ptr, ptr %9, align 8, !tbaa !34
  call void %39(ptr noundef %40)
  br label %41

41:                                               ; preds = %34, %25
  %42 = load i64, ptr %5, align 8, !tbaa !28
  %43 = add i64 %42, 1
  store i64 %43, ptr %5, align 8, !tbaa !28
  br label %44

44:                                               ; preds = %103, %41
  %45 = load i64, ptr %5, align 8, !tbaa !28
  %46 = load i64, ptr %7, align 8, !tbaa !28
  %47 = icmp eq i64 %45, %46
  br i1 %47, label %48, label %49

48:                                               ; preds = %44
  store i64 0, ptr %5, align 8, !tbaa !28
  br label %49

49:                                               ; preds = %48, %44
  %50 = load ptr, ptr %8, align 8, !tbaa !34
  %51 = load i64, ptr %5, align 8, !tbaa !28
  %52 = getelementptr inbounds nuw %struct.pmix_hash_element_t, ptr %50, i64 %51
  store ptr %52, ptr %9, align 8, !tbaa !34
  %53 = load ptr, ptr %9, align 8, !tbaa !34
  %54 = getelementptr inbounds nuw %struct.pmix_hash_element_t, ptr %53, i32 0, i32 0
  %55 = load i32, ptr %54, align 8, !tbaa !35
  %56 = icmp ne i32 %55, 0
  br i1 %56, label %58, label %57

57:                                               ; preds = %49
  br label %106

58:                                               ; preds = %49
  %59 = load ptr, ptr %4, align 8, !tbaa !3
  %60 = getelementptr inbounds nuw %struct.pmix_hash_table_t, ptr %59, i32 0, i32 10
  %61 = load ptr, ptr %60, align 8, !tbaa !25
  %62 = getelementptr inbounds nuw %struct.pmix_hash_type_methods_t, ptr %61, i32 0, i32 1
  %63 = load ptr, ptr %62, align 8, !tbaa !45
  %64 = load ptr, ptr %9, align 8, !tbaa !34
  %65 = call i64 %63(ptr noundef %64)
  %66 = load i64, ptr %7, align 8, !tbaa !28
  %67 = urem i64 %65, %66
  store i64 %67, ptr %6, align 8, !tbaa !28
  br label %68

68:                                               ; preds = %99, %58
  %69 = load i64, ptr %6, align 8, !tbaa !28
  %70 = load i64, ptr %7, align 8, !tbaa !28
  %71 = icmp eq i64 %69, %70
  br i1 %71, label %72, label %73

72:                                               ; preds = %68
  store i64 0, ptr %6, align 8, !tbaa !28
  br label %73

73:                                               ; preds = %72, %68
  %74 = load i64, ptr %6, align 8, !tbaa !28
  %75 = load i64, ptr %5, align 8, !tbaa !28
  %76 = icmp eq i64 %74, %75
  br i1 %76, label %77, label %78

77:                                               ; preds = %73
  br label %102

78:                                               ; preds = %73
  %79 = load ptr, ptr %8, align 8, !tbaa !34
  %80 = load i64, ptr %6, align 8, !tbaa !28
  %81 = getelementptr inbounds nuw %struct.pmix_hash_element_t, ptr %79, i64 %80
  %82 = getelementptr inbounds nuw %struct.pmix_hash_element_t, ptr %81, i32 0, i32 0
  %83 = load i32, ptr %82, align 8, !tbaa !35
  %84 = icmp ne i32 %83, 0
  br i1 %84, label %96, label %85

85:                                               ; preds = %78
  %86 = load ptr, ptr %8, align 8, !tbaa !34
  %87 = load i64, ptr %6, align 8, !tbaa !28
  %88 = getelementptr inbounds nuw %struct.pmix_hash_element_t, ptr %86, i64 %87
  %89 = load ptr, ptr %8, align 8, !tbaa !34
  %90 = load i64, ptr %5, align 8, !tbaa !28
  %91 = getelementptr inbounds nuw %struct.pmix_hash_element_t, ptr %89, i64 %90
  call void @llvm.memcpy.p0.p0.i64(ptr align 8 %88, ptr align 8 %91, i64 40, i1 false), !tbaa.struct !46
  %92 = load ptr, ptr %8, align 8, !tbaa !34
  %93 = load i64, ptr %5, align 8, !tbaa !28
  %94 = getelementptr inbounds nuw %struct.pmix_hash_element_t, ptr %92, i64 %93
  %95 = getelementptr inbounds nuw %struct.pmix_hash_element_t, ptr %94, i32 0, i32 0
  store i32 0, ptr %95, align 8, !tbaa !35
  br label %102

96:                                               ; preds = %78
  br label %97

97:                                               ; preds = %96
  br label %98

98:                                               ; preds = %97
  br label %99

99:                                               ; preds = %98
  %100 = load i64, ptr %6, align 8, !tbaa !28
  %101 = add i64 %100, 1
  store i64 %101, ptr %6, align 8, !tbaa !28
  br label %68

102:                                              ; preds = %85, %77
  br label %103

103:                                              ; preds = %102
  %104 = load i64, ptr %5, align 8, !tbaa !28
  %105 = add i64 %104, 1
  store i64 %105, ptr %5, align 8, !tbaa !28
  br label %44

106:                                              ; preds = %57
  %107 = load ptr, ptr %4, align 8, !tbaa !3
  %108 = getelementptr inbounds nuw %struct.pmix_hash_table_t, ptr %107, i32 0, i32 4
  %109 = load i64, ptr %108, align 8, !tbaa !19
  %110 = sub i64 %109, 1
  store i64 %110, ptr %108, align 8, !tbaa !19
  store i32 0, ptr %3, align 4
  store i32 1, ptr %10, align 4
  br label %111

111:                                              ; preds = %106, %24
  call void @llvm.lifetime.end.p0(i64 8, ptr %9) #9
  call void @llvm.lifetime.end.p0(i64 8, ptr %8) #9
  call void @llvm.lifetime.end.p0(i64 8, ptr %7) #9
  call void @llvm.lifetime.end.p0(i64 8, ptr %6) #9
  %112 = load i32, ptr %3, align 4
  ret i32 %112
}

; Function Attrs: nounwind uwtable
define internal i64 @pmix_hash_hash_key_ptr(ptr noundef %0, i64 noundef %1) #0 {
  %3 = alloca ptr, align 8
  %4 = alloca i64, align 8
  %5 = alloca i64, align 8
  %6 = alloca ptr, align 8
  %7 = alloca i64, align 8
  store ptr %0, ptr %3, align 8, !tbaa !42
  store i64 %1, ptr %4, align 8, !tbaa !28
  call void @llvm.lifetime.start.p0(i64 8, ptr %5) #9
  call void @llvm.lifetime.start.p0(i64 8, ptr %6) #9
  call void @llvm.lifetime.start.p0(i64 8, ptr %7) #9
  store i64 0, ptr %5, align 8, !tbaa !28
  %8 = load ptr, ptr %3, align 8, !tbaa !42
  store ptr %8, ptr %6, align 8, !tbaa !48
  store i64 0, ptr %7, align 8, !tbaa !28
  br label %9

9:                                                ; preds = %21, %2
  %10 = load i64, ptr %7, align 8, !tbaa !28
  %11 = load i64, ptr %4, align 8, !tbaa !28
  %12 = icmp ult i64 %10, %11
  br i1 %12, label %13, label %24

13:                                               ; preds = %9
  %14 = load i64, ptr %5, align 8, !tbaa !28
  %15 = mul i64 31, %14
  %16 = load ptr, ptr %6, align 8, !tbaa !48
  %17 = getelementptr inbounds nuw i8, ptr %16, i32 1
  store ptr %17, ptr %6, align 8, !tbaa !48
  %18 = load i8, ptr %16, align 1, !tbaa !43
  %19 = zext i8 %18 to i64
  %20 = add i64 %15, %19
  store i64 %20, ptr %5, align 8, !tbaa !28
  br label %21

21:                                               ; preds = %13
  %22 = load i64, ptr %7, align 8, !tbaa !28
  %23 = add i64 %22, 1
  store i64 %23, ptr %7, align 8, !tbaa !28
  br label %9, !llvm.loop !49

24:                                               ; preds = %9
  %25 = load i64, ptr %5, align 8, !tbaa !28
  call void @llvm.lifetime.end.p0(i64 8, ptr %7) #9
  call void @llvm.lifetime.end.p0(i64 8, ptr %6) #9
  call void @llvm.lifetime.end.p0(i64 8, ptr %5) #9
  ret i64 %25
}

; Function Attrs: nounwind uwtable
define i32 @pmix_hash_table_remove_value_ptr(ptr noundef %0, ptr noundef %1, i64 noundef %2) #0 {
  %4 = alloca i32, align 4
  %5 = alloca ptr, align 8
  %6 = alloca ptr, align 8
  %7 = alloca i64, align 8
  %8 = alloca i64, align 8
  %9 = alloca i64, align 8
  %10 = alloca ptr, align 8
  %11 = alloca i32, align 4
  store ptr %0, ptr %5, align 8, !tbaa !3
  store ptr %1, ptr %6, align 8, !tbaa !42
  store i64 %2, ptr %7, align 8, !tbaa !28
  call void @llvm.lifetime.start.p0(i64 8, ptr %8) #9
  call void @llvm.lifetime.start.p0(i64 8, ptr %9) #9
  %12 = load ptr, ptr %5, align 8, !tbaa !3
  %13 = getelementptr inbounds nuw %struct.pmix_hash_table_t, ptr %12, i32 0, i32 3
  %14 = load i64, ptr %13, align 8, !tbaa !20
  store i64 %14, ptr %9, align 8, !tbaa !28
  %15 = load ptr, ptr %5, align 8, !tbaa !3
  %16 = getelementptr inbounds nuw %struct.pmix_hash_table_t, ptr %15, i32 0, i32 10
  store ptr @pmix_hash_type_methods_ptr, ptr %16, align 8, !tbaa !25
  %17 = load ptr, ptr %6, align 8, !tbaa !42
  %18 = load i64, ptr %7, align 8, !tbaa !28
  %19 = call i64 @pmix_hash_hash_key_ptr(ptr noundef %17, i64 noundef %18)
  %20 = load i64, ptr %9, align 8, !tbaa !28
  %21 = urem i64 %19, %20
  store i64 %21, ptr %8, align 8, !tbaa !28
  br label %22

22:                                               ; preds = %64, %3
  call void @llvm.lifetime.start.p0(i64 8, ptr %10) #9
  %23 = load i64, ptr %8, align 8, !tbaa !28
  %24 = load i64, ptr %9, align 8, !tbaa !28
  %25 = icmp eq i64 %23, %24
  br i1 %25, label %26, label %27

26:                                               ; preds = %22
  store i64 0, ptr %8, align 8, !tbaa !28
  br label %27

27:                                               ; preds = %26, %22
  %28 = load ptr, ptr %5, align 8, !tbaa !3
  %29 = getelementptr inbounds nuw %struct.pmix_hash_table_t, ptr %28, i32 0, i32 2
  %30 = load ptr, ptr %29, align 8, !tbaa !8
  %31 = load i64, ptr %8, align 8, !tbaa !28
  %32 = getelementptr inbounds nuw %struct.pmix_hash_element_t, ptr %30, i64 %31
  store ptr %32, ptr %10, align 8, !tbaa !34
  %33 = load ptr, ptr %10, align 8, !tbaa !34
  %34 = getelementptr inbounds nuw %struct.pmix_hash_element_t, ptr %33, i32 0, i32 0
  %35 = load i32, ptr %34, align 8, !tbaa !35
  %36 = icmp ne i32 %35, 0
  br i1 %36, label %38, label %37

37:                                               ; preds = %27
  store i32 -46, ptr %4, align 4
  store i32 1, ptr %11, align 4
  br label %61

38:                                               ; preds = %27
  %39 = load ptr, ptr %10, align 8, !tbaa !34
  %40 = getelementptr inbounds nuw %struct.pmix_hash_element_t, ptr %39, i32 0, i32 1
  %41 = getelementptr inbounds nuw %struct.anon, ptr %40, i32 0, i32 1
  %42 = load i64, ptr %41, align 8, !tbaa !43
  %43 = load i64, ptr %7, align 8, !tbaa !28
  %44 = icmp eq i64 %42, %43
  br i1 %44, label %45, label %58

45:                                               ; preds = %38
  %46 = load ptr, ptr %10, align 8, !tbaa !34
  %47 = getelementptr inbounds nuw %struct.pmix_hash_element_t, ptr %46, i32 0, i32 1
  %48 = getelementptr inbounds nuw %struct.anon, ptr %47, i32 0, i32 0
  %49 = load ptr, ptr %48, align 8, !tbaa !43
  %50 = load ptr, ptr %6, align 8, !tbaa !42
  %51 = load i64, ptr %7, align 8, !tbaa !28
  %52 = call i32 @memcmp(ptr noundef %49, ptr noundef %50, i64 noundef %51) #11
  %53 = icmp eq i32 0, %52
  br i1 %53, label %54, label %58

54:                                               ; preds = %45
  %55 = load ptr, ptr %5, align 8, !tbaa !3
  %56 = load i64, ptr %8, align 8, !tbaa !28
  %57 = call i32 @pmix_hash_table_remove_elt_at(ptr noundef %55, i64 noundef %56)
  store i32 %57, ptr %4, align 4
  store i32 1, ptr %11, align 4
  br label %61

58:                                               ; preds = %45, %38
  br label %59

59:                                               ; preds = %58
  br label %60

60:                                               ; preds = %59
  store i32 0, ptr %11, align 4
  br label %61

61:                                               ; preds = %60, %54, %37
  call void @llvm.lifetime.end.p0(i64 8, ptr %10) #9
  %62 = load i32, ptr %11, align 4
  switch i32 %62, label %67 [
    i32 0, label %63
  ]

63:                                               ; preds = %61
  br label %64

64:                                               ; preds = %63
  %65 = load i64, ptr %8, align 8, !tbaa !28
  %66 = add i64 %65, 1
  store i64 %66, ptr %8, align 8, !tbaa !28
  br label %22

67:                                               ; preds = %61
  call void @llvm.lifetime.end.p0(i64 8, ptr %9) #9
  call void @llvm.lifetime.end.p0(i64 8, ptr %8) #9
  %68 = load i32, ptr %4, align 4
  ret i32 %68
}