; Function Attrs: nounwind uwtable
define range(i32 -46, 1) i32 @pmix_hash_table_remove_value_ptr(ptr noundef captures(none) initializes((176, 184)) %0, ptr noundef readonly captures(none) %1, i64 noundef %2) local_unnamed_addr #1 {
  %4 = getelementptr inbounds nuw i8, ptr %0, i64 136
  %5 = load i64, ptr %4, align 8, !tbaa !11
  %6 = getelementptr inbounds nuw i8, ptr %0, i64 176
  store ptr @pmix_hash_type_methods_ptr, ptr %6, align 8, !tbaa !21
  %.not.i = icmp eq i64 %2, 0
  br i1 %.not.i, label %pmix_hash_hash_key_ptr.exit, label %.lr.ph.i

.lr.ph.i:                                         ; preds = %3, %.lr.ph.i
  %.010.i = phi i64 [ %12, %.lr.ph.i ], [ 0, %3 ]
  %.069.i = phi ptr [ %8, %.lr.ph.i ], [ %1, %3 ]
  %.078.i = phi i64 [ %11, %.lr.ph.i ], [ 0, %3 ]
  %7 = mul i64 %.078.i, 31
  %8 = getelementptr inbounds nuw i8, ptr %.069.i, i64 1
  %9 = load i8, ptr %.069.i, align 1, !tbaa !36
  %10 = zext i8 %9 to i64
  %11 = add i64 %7, %10
  %12 = add nuw i64 %.010.i, 1
  %exitcond.not.i = icmp eq i64 %12, %2
  br i1 %exitcond.not.i, label %pmix_hash_hash_key_ptr.exit, label %.lr.ph.i, !llvm.loop !44

pmix_hash_hash_key_ptr.exit:                      ; preds = %.lr.ph.i, %3
  %.07.lcssa.i = phi i64 [ 0, %3 ], [ %11, %.lr.ph.i ]
  %13 = urem i64 %.07.lcssa.i, %5
  %14 = getelementptr inbounds nuw i8, ptr %0, i64 128
  %15 = load ptr, ptr %14, align 8, !tbaa !17
  %16 = getelementptr inbounds nuw %struct.pmix_hash_element_t, ptr %15, i64 %13
  %17 = load i32, ptr %16, align 8, !tbaa !18
  %.not34 = icmp eq i32 %17, 0
  br i1 %.not34, label %.loopexit, label %.lr.ph

.lr.ph:                                           ; preds = %pmix_hash_hash_key_ptr.exit, %59
  %18 = phi ptr [ %62, %59 ], [ %16, %pmix_hash_hash_key_ptr.exit ]
  %spec.store.select35 = phi i64 [ %spec.store.select, %59 ], [ %13, %pmix_hash_hash_key_ptr.exit ]
  %19 = getelementptr inbounds nuw i8, ptr %18, i64 16
  %20 = load i64, ptr %19, align 8, !tbaa !36
  %21 = icmp eq i64 %20, %2
  br i1 %21, label %22, label %59

22:                                               ; preds = %.lr.ph
  %23 = getelementptr inbounds nuw i8, ptr %18, i64 8
  %24 = load ptr, ptr %23, align 8, !tbaa !36
  %bcmp = tail call i32 @bcmp(ptr %24, ptr %1, i64 %2)
  %25 = icmp eq i32 %bcmp, 0
  br i1 %25, label %26, label %59

26:                                               ; preds = %22
  %27 = getelementptr inbounds nuw i8, ptr %18, i64 16
  store i32 0, ptr %18, align 8, !tbaa !18
  store i64 0, ptr %27, align 8, !tbaa !36
  %.not.i46 = icmp eq ptr %24, null
  br i1 %.not.i46, label %pmix_hash_destruct_elt_ptr.exit, label %28

28:                                               ; preds = %26
  %29 = getelementptr inbounds nuw i8, ptr %18, i64 8
  store ptr null, ptr %29, align 8, !tbaa !36
  %30 = getelementptr inbounds nuw i8, ptr %18, i64 24
  %31 = load ptr, ptr %30, align 8, !tbaa !38
  %.not.i.i = icmp eq ptr %31, null
  br i1 %.not.i.i, label %35, label %32

32:                                               ; preds = %28
  %33 = getelementptr inbounds nuw i8, ptr %31, i64 40
  %34 = load ptr, ptr %33, align 8, !tbaa !28
  tail call void %34(ptr noundef nonnull %31, ptr noundef nonnull %24) #13
  br label %pmix_hash_destruct_elt_ptr.exit

35:                                               ; preds = %28
  tail call void @free(ptr noundef nonnull %24) #13
  br label %pmix_hash_destruct_elt_ptr.exit

pmix_hash_destruct_elt_ptr.exit:                  ; preds = %26, %32, %35
  %.03441.i = add i64 %spec.store.select35, 1
  %36 = icmp eq i64 %.03441.i, %5
  %spec.store.select42.i = select i1 %36, i64 0, i64 %.03441.i
  %37 = getelementptr inbounds nuw %struct.pmix_hash_element_t, ptr %15, i64 %spec.store.select42.i
  %38 = load i32, ptr %37, align 8, !tbaa !18
  %.not3843.i = icmp eq i32 %38, 0
  br i1 %.not3843.i, label %pmix_hash_table_remove_elt_at.exit, label %.lr.ph45.i

.lr.ph45.i:                                       ; preds = %pmix_hash_destruct_elt_ptr.exit, %.loopexit.i
  %39 = phi ptr [ %54, %.loopexit.i ], [ %37, %pmix_hash_destruct_elt_ptr.exit ]
  %spec.store.select44.i = phi i64 [ %spec.store.select.i, %.loopexit.i ], [ %spec.store.select42.i, %pmix_hash_destruct_elt_ptr.exit ]
  %40 = load ptr, ptr %6, align 8, !tbaa !21
  %41 = getelementptr inbounds nuw i8, ptr %40, i64 8
  %42 = load ptr, ptr %41, align 8, !tbaa !39
  %43 = tail call i64 %42(ptr noundef nonnull %39) #13
  %44 = urem i64 %43, %5
  %45 = icmp eq i64 %44, %spec.store.select44.i
  br i1 %45, label %.loopexit.i, label %.lr.ph.i23

46:                                               ; preds = %.lr.ph.i23
  %47 = add i64 %spec.store.select140.i, 1
  %48 = icmp eq i64 %47, %5
  %spec.store.select1.i = select i1 %48, i64 0, i64 %47
  %49 = icmp eq i64 %spec.store.select1.i, %spec.store.select44.i
  br i1 %49, label %.loopexit.i, label %.lr.ph.i23

.lr.ph.i23:                                       ; preds = %.lr.ph45.i, %46
  %spec.store.select140.i = phi i64 [ %spec.store.select1.i, %46 ], [ %44, %.lr.ph45.i ]
  %50 = getelementptr inbounds nuw %struct.pmix_hash_element_t, ptr %15, i64 %spec.store.select140.i
  %51 = load i32, ptr %50, align 8, !tbaa !18
  %.not39.i = icmp eq i32 %51, 0
  br i1 %.not39.i, label %52, label %46

52:                                               ; preds = %.lr.ph.i23
  tail call void @llvm.memcpy.p0.p0.i64(ptr noundef nonnull align 8 dereferenceable(40) %50, ptr noundef nonnull align 8 dereferenceable(40) %39, i64 40, i1 false), !tbaa.struct !40
  store i32 0, ptr %39, align 8, !tbaa !18
  br label %.loopexit.i

.loopexit.i:                                      ; preds = %46, %52, %.lr.ph45.i
  %.034.i = add i64 %spec.store.select44.i, 1
  %53 = icmp eq i64 %.034.i, %5
  %spec.store.select.i = select i1 %53, i64 0, i64 %.034.i
  %54 = getelementptr inbounds nuw %struct.pmix_hash_element_t, ptr %15, i64 %spec.store.select.i
  %55 = load i32, ptr %54, align 8, !tbaa !18
  %.not38.i = icmp eq i32 %55, 0
  br i1 %.not38.i, label %pmix_hash_table_remove_elt_at.exit, label %.lr.ph45.i

pmix_hash_table_remove_elt_at.exit:               ; preds = %.loopexit.i, %pmix_hash_destruct_elt_ptr.exit
  %56 = getelementptr inbounds nuw i8, ptr %0, i64 144
  %57 = load i64, ptr %56, align 8, !tbaa !27
  %58 = add i64 %57, -1
  store i64 %58, ptr %56, align 8, !tbaa !27
  br label %.loopexit

59:                                               ; preds = %22, %.lr.ph
  %60 = add i64 %spec.store.select35, 1
  %61 = icmp eq i64 %60, %5
  %spec.store.select = select i1 %61, i64 0, i64 %60
  %62 = getelementptr inbounds nuw %struct.pmix_hash_element_t, ptr %15, i64 %spec.store.select
  %63 = load i32, ptr %62, align 8, !tbaa !18
  %.not = icmp eq i32 %63, 0
  br i1 %.not, label %.loopexit, label %.lr.ph

.loopexit:                                        ; preds = %59, %pmix_hash_hash_key_ptr.exit, %pmix_hash_table_remove_elt_at.exit
  %.1 = phi i32 [ 0, %pmix_hash_table_remove_elt_at.exit ], [ -46, %pmix_hash_hash_key_ptr.exit ], [ -46, %59 ]
  ret i32 %.1
}